; Function Attrs: mustprogress nofree norecurse nounwind memory(readwrite, inaccessiblemem: none) uwtable
define noundef i64 @_ZNK7rocksdb14StatisticsImpl20getTickerCountLockedEj(ptr nocapture noundef nonnull readonly align 8 dereferenceable(112) %this, i32 noundef %tickerType) local_unnamed_addr #7 align 2 personality ptr @__gxx_personality_v0 {
entry:
  %size_shift_.i = getelementptr inbounds i8, ptr %this, i64 104
  %per_core_stats_ = getelementptr inbounds i8, ptr %this, i64 96
  %idxprom = zext i32 %tickerType to i64
  br label %for.body

for.body:                                         ; preds = %entry, %for.body
  %core_idx.06 = phi i64 [ 0, %entry ], [ %inc, %for.body ]
  %res.05 = phi i64 [ 0, %entry ], [ %add, %for.body ]
  %0 = load ptr, ptr %per_core_stats_, align 8
  %arrayidx.i.i = getelementptr inbounds %"struct.rocksdb::StatisticsImpl::StatisticsData", ptr %0, i64 %core_idx.06
  %arrayidx = getelementptr inbounds [216 x %"struct.std::atomic.51"], ptr %arrayidx.i.i, i64 0, i64 %idxprom
  %1 = load atomic i64, ptr %arrayidx seq_cst, align 8
  %add = add i64 %1, %res.05
  %inc = add nuw i64 %core_idx.06, 1
  %2 = load i32, ptr %size_shift_.i, align 8
  %sh_prom.i = zext nneg i32 %2 to i64
  %core_idx.0.highbits = lshr i64 %inc, %sh_prom.i
  %cmp = icmp eq i64 %core_idx.0.highbits, 0
  br i1 %cmp, label %for.body, label %for.end, !llvm.loop !24

for.end:                                          ; preds = %for.body
  ret i64 %add
}